target datalayout = "e-m:e-p270:32:32-p271:32:32-p272:64:64-i64:64-i128:128-f80:128-n8:16:32:64-S128"
target triple = "x86_64-pc-linux-gnu"

%struct.control_t = type { %struct.block_header_t, i32, [9 x i32], [9 x [32 x ptr]] }
%struct.block_header_t = type { ptr, i64, ptr, ptr }

; Function Attrs: nounwind uwtable
define internal i32 @tlsf_fls(i32 noundef %0) #0 {
  %2 = alloca i32, align 4
  %3 = alloca i32, align 4
  store i32 %0, ptr %2, align 4, !tbaa !7
  call void @llvm.lifetime.start.p0(i64 4, ptr %3) #5
  %4 = load i32, ptr %2, align 4, !tbaa !7
  %5 = icmp ne i32 %4, 0
  br i1 %5, label %6, label %10

6:                                                ; preds = %1
  %7 = load i32, ptr %2, align 4, !tbaa !7
  %8 = call i32 @llvm.ctlz.i32(i32 %7, i1 true)
  %9 = sub nsw i32 32, %8
  br label %11

10:                                               ; preds = %1
  br label %11

11:                                               ; preds = %10, %6
  %12 = phi i32 [ %9, %6 ], [ 0, %10 ]
  store i32 %12, ptr %3, align 4, !tbaa !7
  %13 = load i32, ptr %3, align 4, !tbaa !7
  %14 = sub nsw i32 %13, 1
  call void @llvm.lifetime.end.p0(i64 4, ptr %3) #5
  ret i32 %14
}

; Function Attrs: nounwind uwtable
define internal i32 @tlsf_fls_sizet(i64 noundef %0) #0 {
  %2 = alloca i64, align 8
  %3 = alloca i32, align 4
  %4 = alloca i32, align 4
  store i64 %0, ptr %2, align 8, !tbaa !19
  call void @llvm.lifetime.start.p0(i64 4, ptr %3) #5
  %5 = load i64, ptr %2, align 8, !tbaa !19
  %6 = lshr i64 %5, 32
  %7 = trunc i64 %6 to i32
  store i32 %7, ptr %3, align 4, !tbaa !7
  call void @llvm.lifetime.start.p0(i64 4, ptr %4) #5
  store i32 0, ptr %4, align 4, !tbaa !7
  %8 = load i32, ptr %3, align 4, !tbaa !7
  %9 = icmp ne i32 %8, 0
  br i1 %9, label %10, label %14

10:                                               ; preds = %1
  %11 = load i32, ptr %3, align 4, !tbaa !7
  %12 = call i32 @tlsf_fls(i32 noundef %11)
  %13 = add nsw i32 32, %12
  store i32 %13, ptr %4, align 4, !tbaa !7
  br label %19

14:                                               ; preds = %1
  %15 = load i64, ptr %2, align 8, !tbaa !19
  %16 = trunc i64 %15 to i32
  %17 = and i32 %16, -1
  %18 = call i32 @tlsf_fls(i32 noundef %17)
  store i32 %18, ptr %4, align 4, !tbaa !7
  br label %19

19:                                               ; preds = %14, %10
  %20 = load i32, ptr %4, align 4, !tbaa !7
  call void @llvm.lifetime.end.p0(i64 4, ptr %4) #5
  call void @llvm.lifetime.end.p0(i64 4, ptr %3) #5
  ret i32 %20
}

; Function Attrs: nounwind uwtable
define internal i32 @block_is_last(ptr noundef %0) #0 {
  %2 = alloca ptr, align 8
  store ptr %0, ptr %2, align 8, !tbaa !3
  %3 = load ptr, ptr %2, align 8, !tbaa !3
  %4 = call i64 @block_size(ptr noundef %3)
  %5 = icmp eq i64 %4, 0
  %6 = zext i1 %5 to i32
  ret i32 %6
}

; Function Attrs: nounwind uwtable
define internal ptr @block_to_ptr(ptr noundef %0) #0 {
  %2 = alloca ptr, align 8
  store ptr %0, ptr %2, align 8, !tbaa !3
  %3 = load ptr, ptr %2, align 8, !tbaa !3
  %4 = getelementptr inbounds nuw i8, ptr %3, i64 16
  ret ptr %4
}

; Function Attrs: nounwind uwtable
define internal void @remove_free_block(ptr noundef %0, ptr noundef %1, i32 noundef %2, i32 noundef %3) #0 {
  %5 = alloca ptr, align 8
  %6 = alloca ptr, align 8
  %7 = alloca i32, align 4
  %8 = alloca i32, align 4
  %9 = alloca ptr, align 8
  %10 = alloca ptr, align 8
  store ptr %0, ptr %5, align 8, !tbaa !3
  store ptr %1, ptr %6, align 8, !tbaa !3
  store i32 %2, ptr %7, align 4, !tbaa !7
  store i32 %3, ptr %8, align 4, !tbaa !7
  call void @llvm.lifetime.start.p0(i64 8, ptr %9) #5
  %11 = load ptr, ptr %6, align 8, !tbaa !3
  %12 = getelementptr inbounds nuw %struct.block_header_t, ptr %11, i32 0, i32 3
  %13 = load ptr, ptr %12, align 8, !tbaa !25
  store ptr %13, ptr %9, align 8, !tbaa !3
  call void @llvm.lifetime.start.p0(i64 8, ptr %10) #5
  %14 = load ptr, ptr %6, align 8, !tbaa !3
  %15 = getelementptr inbounds nuw %struct.block_header_t, ptr %14, i32 0, i32 2
  %16 = load ptr, ptr %15, align 8, !tbaa !13
  store ptr %16, ptr %10, align 8, !tbaa !3
  br label %17

17:                                               ; preds = %4
  %18 = load ptr, ptr %9, align 8, !tbaa !3
  %19 = icmp ne ptr %18, null
  br i1 %19, label %20, label %21

20:                                               ; preds = %17
  br i1 true, label %27, label %21

21:                                               ; preds = %20, %17
  br label %22

22:                                               ; preds = %21
  br label %23

23:                                               ; preds = %22
  br label %24

24:                                               ; preds = %23
  br label %25

25:                                               ; preds = %26, %24
  br label %26

26:                                               ; preds = %25
  br label %25

27:                                               ; preds = %20
  br label %28

28:                                               ; preds = %27
  br label %29

29:                                               ; preds = %28
  br label %30

30:                                               ; preds = %29
  %31 = load ptr, ptr %10, align 8, !tbaa !3
  %32 = icmp ne ptr %31, null
  br i1 %32, label %33, label %34

33:                                               ; preds = %30
  br i1 true, label %40, label %34

34:                                               ; preds = %33, %30
  br label %35

35:                                               ; preds = %34
  br label %36

36:                                               ; preds = %35
  br label %37

37:                                               ; preds = %36
  br label %38

38:                                               ; preds = %39, %37
  br label %39

39:                                               ; preds = %38
  br label %38

40:                                               ; preds = %33
  br label %41

41:                                               ; preds = %40
  br label %42

42:                                               ; preds = %41
  %43 = load ptr, ptr %9, align 8, !tbaa !3
  %44 = load ptr, ptr %10, align 8, !tbaa !3
  %45 = getelementptr inbounds nuw %struct.block_header_t, ptr %44, i32 0, i32 3
  store ptr %43, ptr %45, align 8, !tbaa !25
  %46 = load ptr, ptr %10, align 8, !tbaa !3
  %47 = load ptr, ptr %9, align 8, !tbaa !3
  %48 = getelementptr inbounds nuw %struct.block_header_t, ptr %47, i32 0, i32 2
  store ptr %46, ptr %48, align 8, !tbaa !13
  %49 = load ptr, ptr %5, align 8, !tbaa !3
  %50 = getelementptr inbounds nuw %struct.control_t, ptr %49, i32 0, i32 3
  %51 = load i32, ptr %7, align 4, !tbaa !7
  %52 = sext i32 %51 to i64
  %53 = getelementptr inbounds [9 x [32 x ptr]], ptr %50, i64 0, i64 %52
  %54 = load i32, ptr %8, align 4, !tbaa !7
  %55 = sext i32 %54 to i64
  %56 = getelementptr inbounds [32 x ptr], ptr %53, i64 0, i64 %55
  %57 = load ptr, ptr %56, align 8, !tbaa !3
  %58 = load ptr, ptr %6, align 8, !tbaa !3
  %59 = icmp eq ptr %57, %58
  br i1 %59, label %60, label %102

60:                                               ; preds = %42
  %61 = load ptr, ptr %10, align 8, !tbaa !3
  %62 = load ptr, ptr %5, align 8, !tbaa !3
  %63 = getelementptr inbounds nuw %struct.control_t, ptr %62, i32 0, i32 3
  %64 = load i32, ptr %7, align 4, !tbaa !7
  %65 = sext i32 %64 to i64
  %66 = getelementptr inbounds [9 x [32 x ptr]], ptr %63, i64 0, i64 %65
  %67 = load i32, ptr %8, align 4, !tbaa !7
  %68 = sext i32 %67 to i64
  %69 = getelementptr inbounds [32 x ptr], ptr %66, i64 0, i64 %68
  store ptr %61, ptr %69, align 8, !tbaa !3
  %70 = load ptr, ptr %10, align 8, !tbaa !3
  %71 = load ptr, ptr %5, align 8, !tbaa !3
  %72 = getelementptr inbounds nuw %struct.control_t, ptr %71, i32 0, i32 0
  %73 = icmp eq ptr %70, %72
  br i1 %73, label %74, label %101

74:                                               ; preds = %60
  %75 = load i32, ptr %8, align 4, !tbaa !7
  %76 = shl i32 1, %75
  %77 = xor i32 %76, -1
  %78 = load ptr, ptr %5, align 8, !tbaa !3
  %79 = getelementptr inbounds nuw %struct.control_t, ptr %78, i32 0, i32 2
  %80 = load i32, ptr %7, align 4, !tbaa !7
  %81 = sext i32 %80 to i64
  %82 = getelementptr inbounds [9 x i32], ptr %79, i64 0, i64 %81
  %83 = load i32, ptr %82, align 4, !tbaa !7
  %84 = and i32 %83, %77
  store i32 %84, ptr %82, align 4, !tbaa !7
  %85 = load ptr, ptr %5, align 8, !tbaa !3
  %86 = getelementptr inbounds nuw %struct.control_t, ptr %85, i32 0, i32 2
  %87 = load i32, ptr %7, align 4, !tbaa !7
  %88 = sext i32 %87 to i64
  %89 = getelementptr inbounds [9 x i32], ptr %86, i64 0, i64 %88
  %90 = load i32, ptr %89, align 4, !tbaa !7
  %91 = icmp ne i32 %90, 0
  br i1 %91, label %100, label %92

92:                                               ; preds = %74
  %93 = load i32, ptr %7, align 4, !tbaa !7
  %94 = shl i32 1, %93
  %95 = xor i32 %94, -1
  %96 = load ptr, ptr %5, align 8, !tbaa !3
  %97 = getelementptr inbounds nuw %struct.control_t, ptr %96, i32 0, i32 1
  %98 = load i32, ptr %97, align 8, !tbaa !9
  %99 = and i32 %98, %95
  store i32 %99, ptr %97, align 8, !tbaa !9
  br label %100

100:                                              ; preds = %92, %74
  br label %101

101:                                              ; preds = %100, %60
  br label %102

102:                                              ; preds = %101, %42
  call void @llvm.lifetime.end.p0(i64 8, ptr %10) #5
  call void @llvm.lifetime.end.p0(i64 8, ptr %9) #5
  ret void
}

; Function Attrs: nounwind uwtable
define internal void @mapping_insert(i64 noundef %0, ptr noundef %1, ptr noundef %2) #0 {
  %4 = alloca i64, align 8
  %5 = alloca ptr, align 8
  %6 = alloca ptr, align 8
  %7 = alloca i32, align 4
  %8 = alloca i32, align 4
  store i64 %0, ptr %4, align 8, !tbaa !19
  store ptr %1, ptr %5, align 8, !tbaa !3
  store ptr %2, ptr %6, align 8, !tbaa !3
  call void @llvm.lifetime.start.p0(i64 4, ptr %7) #5
  call void @llvm.lifetime.start.p0(i64 4, ptr %8) #5
  %9 = load i64, ptr %4, align 8, !tbaa !19
  %10 = icmp ult i64 %9, 256
  br i1 %10, label %11, label %15

11:                                               ; preds = %3
  store i32 0, ptr %7, align 4, !tbaa !7
  %12 = load i64, ptr %4, align 8, !tbaa !19
  %13 = trunc i64 %12 to i32
  %14 = sdiv i32 %13, 8
  store i32 %14, ptr %8, align 4, !tbaa !7
  br label %27

15:                                               ; preds = %3
  %16 = load i64, ptr %4, align 8, !tbaa !19
  %17 = call i32 @tlsf_fls_sizet(i64 noundef %16)
  store i32 %17, ptr %7, align 4, !tbaa !7
  %18 = load i64, ptr %4, align 8, !tbaa !19
  %19 = load i32, ptr %7, align 4, !tbaa !7
  %20 = sub nsw i32 %19, 5
  %21 = zext i32 %20 to i64
  %22 = lshr i64 %18, %21
  %23 = trunc i64 %22 to i32
  %24 = xor i32 %23, 32
  store i32 %24, ptr %8, align 4, !tbaa !7
  %25 = load i32, ptr %7, align 4, !tbaa !7
  %26 = sub nsw i32 %25, 7
  store i32 %26, ptr %7, align 4, !tbaa !7
  br label %27

27:                                               ; preds = %15, %11
  %28 = load i32, ptr %7, align 4, !tbaa !7
  %29 = load ptr, ptr %5, align 8, !tbaa !3
  store i32 %28, ptr %29, align 4, !tbaa !7
  %30 = load i32, ptr %8, align 4, !tbaa !7
  %31 = load ptr, ptr %6, align 8, !tbaa !3
  store i32 %30, ptr %31, align 4, !tbaa !7
  call void @llvm.lifetime.end.p0(i64 4, ptr %8) #5
  call void @llvm.lifetime.end.p0(i64 4, ptr %7) #5
  ret void
}

; Function Attrs: nounwind uwtable
define internal i64 @block_size(ptr noundef %0) #0 {
  %2 = alloca ptr, align 8
  store ptr %0, ptr %2, align 8, !tbaa !3
  %3 = load ptr, ptr %2, align 8, !tbaa !3
  %4 = getelementptr inbounds nuw %struct.block_header_t, ptr %3, i32 0, i32 1
  %5 = load i64, ptr %4, align 8, !tbaa !18
  %6 = and i64 %5, -4
  ret i64 %6
}

; Function Attrs: nounwind uwtable
define internal ptr @block_next(ptr noundef %0) #0 {
  %2 = alloca ptr, align 8
  %3 = alloca ptr, align 8
  store ptr %0, ptr %2, align 8, !tbaa !3
  call void @llvm.lifetime.start.p0(i64 8, ptr %3) #5
  %4 = load ptr, ptr %2, align 8, !tbaa !3
  %5 = call ptr @block_to_ptr(ptr noundef %4)
  %6 = load ptr, ptr %2, align 8, !tbaa !3
  %7 = call i64 @block_size(ptr noundef %6)
  %8 = sub i64 %7, 8
  %9 = call ptr @offset_to_block(ptr noundef %5, i64 noundef %8)
  store ptr %9, ptr %3, align 8, !tbaa !3
  br label %10

10:                                               ; preds = %1
  %11 = load ptr, ptr %2, align 8, !tbaa !3
  %12 = call i32 @block_is_last(ptr noundef %11)
  %13 = icmp ne i32 %12, 0
  br i1 %13, label %14, label %20

14:                                               ; preds = %10
  br label %15

15:                                               ; preds = %14
  br label %16

16:                                               ; preds = %15
  br label %17

17:                                               ; preds = %16
  br label %18

18:                                               ; preds = %19, %17
  br label %19

19:                                               ; preds = %18
  br label %18

20:                                               ; preds = %10
  br label %21

21:                                               ; preds = %20
  br label %22

22:                                               ; preds = %21
  %23 = load ptr, ptr %3, align 8, !tbaa !3
  call void @llvm.lifetime.end.p0(i64 8, ptr %3) #5
  ret ptr %23
}

; Function Attrs: nounwind uwtable
define internal i32 @block_is_free(ptr noundef %0) #0 {
  %2 = alloca ptr, align 8
  store ptr %0, ptr %2, align 8, !tbaa !3
  %3 = load ptr, ptr %2, align 8, !tbaa !3
  %4 = getelementptr inbounds nuw %struct.block_header_t, ptr %3, i32 0, i32 1
  %5 = load i64, ptr %4, align 8, !tbaa !18
  %6 = and i64 %5, 1
  %7 = trunc i64 %6 to i32
  ret i32 %7
}

; Function Attrs: nounwind uwtable
define internal ptr @offset_to_block(ptr noundef %0, i64 noundef %1) #0 {
  %3 = alloca ptr, align 8
  %4 = alloca i64, align 8
  store ptr %0, ptr %3, align 8, !tbaa !3
  store i64 %1, ptr %4, align 8, !tbaa !19
  %5 = load ptr, ptr %3, align 8, !tbaa !3
  %6 = ptrtoint ptr %5 to i64
  %7 = load i64, ptr %4, align 8, !tbaa !19
  %8 = add i64 %6, %7
  %9 = inttoptr i64 %8 to ptr
  ret ptr %9
}

; Function Attrs: nounwind uwtable
define void @lv_tlsf_remove_pool(ptr noundef %0, ptr noundef %1) #0 {
  %3 = alloca ptr, align 8
  %4 = alloca ptr, align 8
  %5 = alloca ptr, align 8
  %6 = alloca ptr, align 8
  %7 = alloca i32, align 4
  %8 = alloca i32, align 4
  store ptr %0, ptr %3, align 8, !tbaa !3
  store ptr %1, ptr %4, align 8, !tbaa !3
  call void @llvm.lifetime.start.p0(i64 8, ptr %5) #5
  %9 = load ptr, ptr %3, align 8, !tbaa !3
  store ptr %9, ptr %5, align 8, !tbaa !3
  call void @llvm.lifetime.start.p0(i64 8, ptr %6) #5
  %10 = load ptr, ptr %4, align 8, !tbaa !3
  %11 = call ptr @offset_to_block(ptr noundef %10, i64 noundef -8)
  store ptr %11, ptr %6, align 8, !tbaa !3
  call void @llvm.lifetime.start.p0(i64 4, ptr %7) #5
  store i32 0, ptr %7, align 4, !tbaa !7
  call void @llvm.lifetime.start.p0(i64 4, ptr %8) #5
  store i32 0, ptr %8, align 4, !tbaa !7
  br label %12

12:                                               ; preds = %2
  %13 = load ptr, ptr %6, align 8, !tbaa !3
  %14 = call i32 @block_is_free(ptr noundef %13)
  %15 = icmp ne i32 %14, 0
  br i1 %15, label %16, label %17

16:                                               ; preds = %12
  br i1 true, label %23, label %17

17:                                               ; preds = %16, %12
  br label %18

18:                                               ; preds = %17
  br label %19

19:                                               ; preds = %18
  br label %20

20:                                               ; preds = %19
  br label %21

21:                                               ; preds = %22, %20
  br label %22

22:                                               ; preds = %21
  br label %21

23:                                               ; preds = %16
  br label %24

24:                                               ; preds = %23
  br label %25

25:                                               ; preds = %24
  br label %26

26:                                               ; preds = %25
  %27 = load ptr, ptr %6, align 8, !tbaa !3
  %28 = call ptr @block_next(ptr noundef %27)
  %29 = call i32 @block_is_free(ptr noundef %28)
  %30 = icmp ne i32 %29, 0
  br i1 %30, label %32, label %31

31:                                               ; preds = %26
  br i1 true, label %38, label %32

32:                                               ; preds = %31, %26
  br label %33

33:                                               ; preds = %32
  br label %34

34:                                               ; preds = %33
  br label %35

35:                                               ; preds = %34
  br label %36

36:                                               ; preds = %37, %35
  br label %37

37:                                               ; preds = %36
  br label %36

38:                                               ; preds = %31
  br label %39

39:                                               ; preds = %38
  br label %40

40:                                               ; preds = %39
  br label %41

41:                                               ; preds = %40
  %42 = load ptr, ptr %6, align 8, !tbaa !3
  %43 = call ptr @block_next(ptr noundef %42)
  %44 = call i64 @block_size(ptr noundef %43)
  %45 = icmp eq i64 %44, 0
  br i1 %45, label %46, label %47

46:                                               ; preds = %41
  br i1 true, label %53, label %47

47:                                               ; preds = %46, %41
  br label %48

48:                                               ; preds = %47
  br label %49

49:                                               ; preds = %48
  br label %50

50:                                               ; preds = %49
  br label %51

51:                                               ; preds = %52, %50
  br label %52

52:                                               ; preds = %51
  br label %51

53:                                               ; preds = %46
  br label %54

54:                                               ; preds = %53
  br label %55

55:                                               ; preds = %54
  %56 = load ptr, ptr %6, align 8, !tbaa !3
  %57 = call i64 @block_size(ptr noundef %56)
  call void @mapping_insert(i64 noundef %57, ptr noundef %7, ptr noundef %8)
  %58 = load ptr, ptr %5, align 8, !tbaa !3
  %59 = load ptr, ptr %6, align 8, !tbaa !3
  %60 = load i32, ptr %7, align 4, !tbaa !7
  %61 = load i32, ptr %8, align 4, !tbaa !7
  call void @remove_free_block(ptr noundef %58, ptr noundef %59, i32 noundef %60, i32 noundef %61)
  call void @llvm.lifetime.end.p0(i64 4, ptr %8) #5
  call void @llvm.lifetime.end.p0(i64 4, ptr %7) #5
  call void @llvm.lifetime.end.p0(i64 8, ptr %6) #5
  call void @llvm.lifetime.end.p0(i64 8, ptr %5) #5
  ret void
}