; Function Attrs: nofree norecurse nosync nounwind memory(readwrite, inaccessiblemem: none) uwtable
define void @lv_tlsf_remove_pool(ptr noundef %0, ptr noundef %1) local_unnamed_addr #6 {
  %3 = ptrtoint ptr %1 to i64
  %4 = add i64 %3, -8
  %5 = inttoptr i64 %4 to ptr
  %6 = getelementptr i8, ptr %5, i64 8
  %.val9 = load i64, ptr %6, align 8, !tbaa !15
  %7 = and i64 %.val9, 1
  %.not = icmp eq i64 %7, 0
  br i1 %.not, label %.preheader, label %8

.preheader:                                       ; preds = %2, %.preheader
  br label %.preheader

8:                                                ; preds = %2
  %9 = icmp ugt i64 %.val9, 3
  br i1 %9, label %block_next.exit, label %.preheader.i

.preheader.i:                                     ; preds = %8, %.preheader.i
  br label %.preheader.i

block_next.exit:                                  ; preds = %8
  %10 = and i64 %.val9, -4
  %11 = getelementptr inbounds nuw i8, ptr %5, i64 16
  %12 = ptrtoint ptr %11 to i64
  %13 = add i64 %12, -8
  %14 = add i64 %13, %10
  %15 = inttoptr i64 %14 to ptr
  %16 = getelementptr i8, ptr %15, i64 8
  %.val = load i64, ptr %16, align 8, !tbaa !15
  %17 = and i64 %.val, 1
  %.not8 = icmp eq i64 %17, 0
  br i1 %.not8, label %block_next.exit14, label %.preheader18

.preheader18:                                     ; preds = %block_next.exit, %.preheader18
  br label %.preheader18

block_next.exit14:                                ; preds = %block_next.exit
  %18 = icmp ult i64 %.val, 4
  br i1 %18, label %19, label %.preheader17

.preheader17:                                     ; preds = %block_next.exit14, %.preheader17
  br label %.preheader17

19:                                               ; preds = %block_next.exit14
  %20 = icmp ult i64 %.val9, 256
  br i1 %20, label %21, label %24

21:                                               ; preds = %19
  %22 = trunc nuw i64 %.val9 to i32
  %23 = lshr i32 %22, 3
  br label %mapping_insert.exit

24:                                               ; preds = %19
  %.not.i.i = icmp ult i64 %.val9, 4294967296
  %25 = lshr i64 %.val9, 32
  %.sink.i.i = select i1 %.not.i.i, i64 %10, i64 %25
  %.sink7.i.i = select i1 %.not.i.i, i32 31, i32 63
  %26 = trunc nuw i64 %.sink.i.i to i32
  %27 = tail call range(i32 0, 33) i32 @llvm.ctlz.i32(i32 %26, i1 true)
  %28 = xor i32 %27, %.sink7.i.i
  %29 = add nsw i32 %28, -5
  %30 = zext nneg i32 %29 to i64
  %31 = lshr i64 %10, %30
  %32 = trunc i64 %31 to i32
  %33 = xor i32 %32, 32
  %34 = add nsw i32 %28, -7
  br label %mapping_insert.exit

mapping_insert.exit:                              ; preds = %21, %24
  %.09.i = phi i32 [ 0, %21 ], [ %34, %24 ]
  %.0.i = phi i32 [ %23, %21 ], [ %33, %24 ]
  %35 = getelementptr inbounds nuw i8, ptr %5, i64 24
  %36 = load ptr, ptr %35, align 8, !tbaa !20
  %37 = load ptr, ptr %11, align 8, !tbaa !16
  %.not.i = icmp eq ptr %36, null
  br i1 %.not.i, label %.preheader.i15, label %38

.preheader.i15:                                   ; preds = %mapping_insert.exit, %.preheader.i15
  br label %.preheader.i15

38:                                               ; preds = %mapping_insert.exit
  %.not26.i = icmp eq ptr %37, null
  br i1 %.not26.i, label %.preheader28.i, label %39

.preheader28.i:                                   ; preds = %38, %.preheader28.i
  br label %.preheader28.i

39:                                               ; preds = %38
  %40 = getelementptr inbounds nuw i8, ptr %37, i64 24
  store ptr %36, ptr %40, align 8, !tbaa !20
  %41 = getelementptr inbounds nuw i8, ptr %36, i64 16
  store ptr %37, ptr %41, align 8, !tbaa !16
  %42 = getelementptr inbounds nuw i8, ptr %0, i64 72
  %43 = sext i32 %.09.i to i64
  %44 = sext i32 %.0.i to i64
  %45 = getelementptr inbounds [9 x [32 x ptr]], ptr %42, i64 0, i64 %43, i64 %44
  %46 = load ptr, ptr %45, align 8, !tbaa !12
  %47 = icmp eq ptr %46, %5
  br i1 %47, label %48, label %remove_free_block.exit

48:                                               ; preds = %39
  store ptr %37, ptr %45, align 8, !tbaa !12
  %49 = icmp eq ptr %37, %0
  br i1 %49, label %50, label %remove_free_block.exit

50:                                               ; preds = %48
  %51 = shl nuw i32 1, %.0.i
  %52 = xor i32 %51, -1
  %53 = getelementptr inbounds nuw i8, ptr %0, i64 36
  %54 = getelementptr inbounds [9 x i32], ptr %53, i64 0, i64 %43
  %55 = load i32, ptr %54, align 4, !tbaa !11
  %56 = and i32 %55, %52
  store i32 %56, ptr %54, align 4, !tbaa !11
  %.not27.i = icmp eq i32 %56, 0
  br i1 %.not27.i, label %57, label %remove_free_block.exit

57:                                               ; preds = %50
  %58 = shl nuw i32 1, %.09.i
  %59 = xor i32 %58, -1
  %60 = getelementptr inbounds nuw i8, ptr %0, i64 32
  %61 = load i32, ptr %60, align 8, !tbaa !3
  %62 = and i32 %61, %59
  store i32 %62, ptr %60, align 8, !tbaa !3
  br label %remove_free_block.exit

remove_free_block.exit:                           ; preds = %39, %48, %50, %57
  ret void
}